target datalayout = "e-m:e-p270:32:32-p271:32:32-p272:64:64-i64:64-i128:128-f80:128-n8:16:32:64-S128"
target triple = "x86_64-pc-linux-gnu"

%struct.jv = type { i8, i8, i16, i32, %union.anon }
%union.anon = type { ptr }
%struct.jv_refcnt = type { i32 }
%struct.decNumber = type { i32, i32, i8, [1 x i16] }
%struct.jvp_literal_number = type { %struct.jv_refcnt, double, ptr, %struct.decNumber }

@.str.1 = private unnamed_addr constant [5 x i8] c"null\00", align 1

; Function Attrs: nounwind uwtable
define internal ptr @jvp_literal_number_ptr(i64 %0, ptr %1) #0 {
  %3 = alloca %struct.jv, align 8
  %4 = getelementptr inbounds nuw { i64, ptr }, ptr %3, i32 0, i32 0
  store i64 %0, ptr %4, align 8
  %5 = getelementptr inbounds nuw { i64, ptr }, ptr %3, i32 0, i32 1
  store ptr %1, ptr %5, align 8
  %6 = getelementptr inbounds nuw %struct.jv, ptr %3, i32 0, i32 4
  %7 = load ptr, ptr %6, align 8, !tbaa !12
  ret ptr %7
}

; Function Attrs: nounwind uwtable
define internal ptr @jvp_dec_number_ptr(i64 %0, ptr %1) #0 {
  %3 = alloca %struct.jv, align 8
  %4 = getelementptr inbounds nuw { i64, ptr }, ptr %3, i32 0, i32 0
  store i64 %0, ptr %4, align 8
  %5 = getelementptr inbounds nuw { i64, ptr }, ptr %3, i32 0, i32 1
  store ptr %1, ptr %5, align 8
  %6 = getelementptr inbounds nuw %struct.jv, ptr %3, i32 0, i32 4
  %7 = load ptr, ptr %6, align 8, !tbaa !12
  %8 = getelementptr inbounds nuw %struct.jvp_literal_number, ptr %7, i32 0, i32 3
  ret ptr %8
}

; Function Attrs: nounwind uwtable
define internal ptr @jvp_literal_number_literal(i64 %0, ptr %1) #0 {
  %3 = alloca ptr, align 8
  %4 = alloca %struct.jv, align 8
  %5 = alloca ptr, align 8
  %6 = alloca ptr, align 8
  %7 = alloca i32, align 4
  %8 = alloca i32, align 4
  %9 = getelementptr inbounds nuw { i64, ptr }, ptr %4, i32 0, i32 0
  store i64 %0, ptr %9, align 8
  %10 = getelementptr inbounds nuw { i64, ptr }, ptr %4, i32 0, i32 1
  store ptr %1, ptr %10, align 8
  call void @llvm.lifetime.start.p0(i64 8, ptr %5) #11
  %11 = getelementptr inbounds nuw { i64, ptr }, ptr %4, i32 0, i32 0
  %12 = load i64, ptr %11, align 8
  %13 = getelementptr inbounds nuw { i64, ptr }, ptr %4, i32 0, i32 1
  %14 = load ptr, ptr %13, align 8
  %15 = call ptr @jvp_dec_number_ptr(i64 %12, ptr %14)
  store ptr %15, ptr %5, align 8, !tbaa !14
  call void @llvm.lifetime.start.p0(i64 8, ptr %6) #11
  %16 = getelementptr inbounds nuw { i64, ptr }, ptr %4, i32 0, i32 0
  %17 = load i64, ptr %16, align 8
  %18 = getelementptr inbounds nuw { i64, ptr }, ptr %4, i32 0, i32 1
  %19 = load ptr, ptr %18, align 8
  %20 = call ptr @jvp_literal_number_ptr(i64 %17, ptr %19)
  store ptr %20, ptr %6, align 8, !tbaa !14
  %21 = load ptr, ptr %5, align 8, !tbaa !14
  %22 = getelementptr inbounds nuw %struct.decNumber, ptr %21, i32 0, i32 2
  %23 = load i8, ptr %22, align 4, !tbaa !22
  %24 = zext i8 %23 to i32
  %25 = and i32 %24, 48
  %26 = icmp ne i32 %25, 0
  br i1 %26, label %27, label %28

27:                                               ; preds = %2
  store ptr @.str.1, ptr %3, align 8
  store i32 1, ptr %7, align 4
  br label %64

28:                                               ; preds = %2
  %29 = load ptr, ptr %5, align 8, !tbaa !14
  %30 = getelementptr inbounds nuw %struct.decNumber, ptr %29, i32 0, i32 2
  %31 = load i8, ptr %30, align 4, !tbaa !22
  %32 = zext i8 %31 to i32
  %33 = and i32 %32, 64
  %34 = icmp ne i32 %33, 0
  br i1 %34, label %35, label %36

35:                                               ; preds = %28
  store ptr null, ptr %3, align 8
  store i32 1, ptr %7, align 4
  br label %64

36:                                               ; preds = %28
  %37 = load ptr, ptr %6, align 8, !tbaa !14
  %38 = getelementptr inbounds nuw %struct.jvp_literal_number, ptr %37, i32 0, i32 2
  %39 = load ptr, ptr %38, align 8, !tbaa !24
  %40 = icmp eq ptr %39, null
  br i1 %40, label %41, label %60

41:                                               ; preds = %36
  call void @llvm.lifetime.start.p0(i64 4, ptr %8) #11
  %42 = getelementptr inbounds nuw { i64, ptr }, ptr %4, i32 0, i32 0
  %43 = load i64, ptr %42, align 8
  %44 = getelementptr inbounds nuw { i64, ptr }, ptr %4, i32 0, i32 1
  %45 = load ptr, ptr %44, align 8
  %46 = call ptr @jvp_dec_number_ptr(i64 %43, ptr %45)
  %47 = getelementptr inbounds nuw %struct.decNumber, ptr %46, i32 0, i32 0
  %48 = load i32, ptr %47, align 4, !tbaa !29
  %49 = add nsw i32 %48, 15
  store i32 %49, ptr %8, align 4, !tbaa !10
  %50 = load i32, ptr %8, align 4, !tbaa !10
  %51 = sext i32 %50 to i64
  %52 = call ptr @jv_mem_alloc(i64 noundef %51)
  %53 = load ptr, ptr %6, align 8, !tbaa !14
  %54 = getelementptr inbounds nuw %struct.jvp_literal_number, ptr %53, i32 0, i32 2
  store ptr %52, ptr %54, align 8, !tbaa !24
  %55 = load ptr, ptr %5, align 8, !tbaa !14
  %56 = load ptr, ptr %6, align 8, !tbaa !14
  %57 = getelementptr inbounds nuw %struct.jvp_literal_number, ptr %56, i32 0, i32 2
  %58 = load ptr, ptr %57, align 8, !tbaa !24
  %59 = call ptr @decNumberToString(ptr noundef %55, ptr noundef %58)
  call void @llvm.lifetime.end.p0(i64 4, ptr %8) #11
  br label %60

60:                                               ; preds = %41, %36
  %61 = load ptr, ptr %6, align 8, !tbaa !14
  %62 = getelementptr inbounds nuw %struct.jvp_literal_number, ptr %61, i32 0, i32 2
  %63 = load ptr, ptr %62, align 8, !tbaa !24
  store ptr %63, ptr %3, align 8
  store i32 1, ptr %7, align 4
  br label %64

64:                                               ; preds = %60, %35, %27
  call void @llvm.lifetime.end.p0(i64 8, ptr %6) #11
  call void @llvm.lifetime.end.p0(i64 8, ptr %5) #11
  %65 = load ptr, ptr %3, align 8
  ret ptr %65
}

; Function Attrs: nounwind uwtable
define dso_local ptr @jv_number_get_literal(i64 %0, ptr %1) #0 {
  %3 = alloca ptr, align 8
  %4 = alloca %struct.jv, align 8
  %5 = getelementptr inbounds nuw { i64, ptr }, ptr %4, i32 0, i32 0
  store i64 %0, ptr %5, align 8
  %6 = getelementptr inbounds nuw { i64, ptr }, ptr %4, i32 0, i32 1
  store ptr %1, ptr %6, align 8
  %7 = getelementptr inbounds nuw %struct.jv, ptr %4, i32 0, i32 0
  %8 = load i8, ptr %7, align 8, !tbaa !4
  %9 = zext i8 %8 to i32
  %10 = icmp eq i32 %9, 148
  br i1 %10, label %11, label %17

11:                                               ; preds = %2
  %12 = getelementptr inbounds nuw { i64, ptr }, ptr %4, i32 0, i32 0
  %13 = load i64, ptr %12, align 8
  %14 = getelementptr inbounds nuw { i64, ptr }, ptr %4, i32 0, i32 1
  %15 = load ptr, ptr %14, align 8
  %16 = call ptr @jvp_literal_number_literal(i64 %13, ptr %15)
  store ptr %16, ptr %3, align 8
  br label %18

17:                                               ; preds = %2
  store ptr null, ptr %3, align 8
  br label %18

18:                                               ; preds = %17, %11
  %19 = load ptr, ptr %3, align 8
  ret ptr %19
}