; Function Attrs: nounwind uwtable
define dso_local ptr @jv_number_get_literal(i64 %0, ptr %1) local_unnamed_addr #2 {
  %3 = and i64 %0, 255
  %4 = icmp eq i64 %3, 148
  br i1 %4, label %5, label %jvp_literal_number_literal.exit

5:                                                ; preds = %2
  %6 = getelementptr inbounds nuw i8, ptr %1, i64 24
  %7 = getelementptr inbounds nuw i8, ptr %1, i64 32
  %8 = load i8, ptr %7, align 4, !tbaa !22
  %9 = zext i8 %8 to i32
  %10 = and i32 %9, 48
  %.not.i = icmp eq i32 %10, 0
  br i1 %.not.i, label %11, label %jvp_literal_number_literal.exit

11:                                               ; preds = %5
  %12 = and i32 %9, 64
  %.not12.i = icmp eq i32 %12, 0
  br i1 %.not12.i, label %13, label %jvp_literal_number_literal.exit

13:                                               ; preds = %11
  %14 = getelementptr inbounds nuw i8, ptr %1, i64 16
  %15 = load ptr, ptr %14, align 8, !tbaa !14
  %16 = icmp eq ptr %15, null
  br i1 %16, label %17, label %jvp_literal_number_literal.exit

17:                                               ; preds = %13
  %18 = load i32, ptr %6, align 4, !tbaa !23
  %19 = add nsw i32 %18, 15
  %20 = sext i32 %19 to i64
  %21 = tail call ptr @jv_mem_alloc(i64 noundef %20) #25
  store ptr %21, ptr %14, align 8, !tbaa !14
  %22 = tail call ptr @decNumberToString(ptr noundef nonnull %6, ptr noundef %21) #25
  %.pre.i = load ptr, ptr %14, align 8, !tbaa !14
  br label %jvp_literal_number_literal.exit

jvp_literal_number_literal.exit:                  ; preds = %17, %13, %11, %5, %2
  %.0 = phi ptr [ null, %2 ], [ @.str.1, %5 ], [ null, %11 ], [ %.pre.i, %17 ], [ %15, %13 ]
  ret ptr %.0
}